target datalayout = "e-m:e-p270:32:32-p271:32:32-p272:64:64-i64:64-i128:128-f80:128-n8:16:32:64-S128"
target triple = "x86_64-unknown-linux-gnu"

%"class.icu_75::MaybeStackArray" = type <{ ptr, i32, i8, [40 x i8], [3 x i8] }>
%"class.icu_75::CharString" = type { %"class.icu_75::MaybeStackArray", i32, [4 x i8] }

@.str = private unnamed_addr constant [1 x i8] zeroinitializer, align 1

; Function Attrs: mustprogress nounwind uwtable
define weak_odr noundef ptr @_ZNK6icu_7515MaybeStackArrayIcLi40EE8getAliasEv(ptr noundef nonnull align 8 dereferenceable(53) %this) #0 comdat align 2 {
entry:
  %this.addr = alloca ptr, align 8
  store ptr %this, ptr %this.addr, align 8
  %this1 = load ptr, ptr %this.addr, align 8
  %ptr = getelementptr inbounds %"class.icu_75::MaybeStackArray", ptr %this1, i32 0, i32 0
  %0 = load ptr, ptr %ptr, align 8
  ret ptr %0
}

; Function Attrs: mustprogress nounwind uwtable
define linkonce_odr noundef ptr @_ZN6icu_7510CharString4dataEv(ptr noundef nonnull align 8 dereferenceable(60) %this) #0 comdat align 2 {
entry:
  %this.addr = alloca ptr, align 8
  store ptr %this, ptr %this.addr, align 8
  %this1 = load ptr, ptr %this.addr, align 8
  %buffer = getelementptr inbounds %"class.icu_75::CharString", ptr %this1, i32 0, i32 0
  %call = call noundef ptr @_ZNK6icu_7515MaybeStackArrayIcLi40EE8getAliasEv(ptr noundef nonnull align 8 dereferenceable(53) %buffer)
  ret ptr %call
}

; Function Attrs: mustprogress nounwind uwtable
define linkonce_odr noundef i32 @_ZNK6icu_7510CharString6lengthEv(ptr noundef nonnull align 8 dereferenceable(60) %this) #0 comdat align 2 {
entry:
  %this.addr = alloca ptr, align 8
  store ptr %this, ptr %this.addr, align 8
  %this1 = load ptr, ptr %this.addr, align 8
  %len = getelementptr inbounds %"class.icu_75::CharString", ptr %this1, i32 0, i32 1
  %0 = load i32, ptr %len, align 8
  ret i32 %0
}

; Function Attrs: mustprogress nounwind uwtable
define linkonce_odr noundef ptr @_ZN6icu_7511Formattable16fromUFormattableEPPv(ptr noundef %fmt) #0 comdat align 2 {
entry:
  %fmt.addr = alloca ptr, align 8
  store ptr %fmt, ptr %fmt.addr, align 8
  %0 = load ptr, ptr %fmt.addr, align 8
  ret ptr %0
}

; Function Attrs: mustprogress nounwind uwtable
define internal noundef signext i8 @_ZL9U_FAILURE10UErrorCode(i32 noundef %code) #0 {
entry:
  %code.addr = alloca i32, align 4
  store i32 %code, ptr %code.addr, align 4
  %0 = load i32, ptr %code.addr, align 4
  %cmp = icmp sgt i32 %0, 0
  %conv = zext i1 %cmp to i8
  ret i8 %conv
}

; Function Attrs: mustprogress uwtable
define ptr @ufmt_getDecNumChars_75(ptr noundef %fmt, ptr noundef %len, ptr noundef %status) #1 {
entry:
  %retval = alloca ptr, align 8
  %fmt.addr = alloca ptr, align 8
  %len.addr = alloca ptr, align 8
  %status.addr = alloca ptr, align 8
  %obj = alloca ptr, align 8
  %charString = alloca ptr, align 8
  store ptr %fmt, ptr %fmt.addr, align 8
  store ptr %len, ptr %len.addr, align 8
  store ptr %status, ptr %status.addr, align 8
  %0 = load ptr, ptr %status.addr, align 8
  %1 = load i32, ptr %0, align 4
  %call = call noundef signext i8 @_ZL9U_FAILURE10UErrorCode(i32 noundef %1)
  %tobool = icmp ne i8 %call, 0
  br i1 %tobool, label %if.then, label %if.end

if.then:                                          ; preds = %entry
  store ptr @.str, ptr %retval, align 8
  br label %return

if.end:                                           ; preds = %entry
  %2 = load ptr, ptr %fmt.addr, align 8
  %call1 = call noundef ptr @_ZN6icu_7511Formattable16fromUFormattableEPPv(ptr noundef %2)
  store ptr %call1, ptr %obj, align 8
  %3 = load ptr, ptr %obj, align 8
  %4 = load ptr, ptr %status.addr, align 8
  %call2 = call noundef ptr @_ZN6icu_7511Formattable21internalGetCharStringER10UErrorCode(ptr noundef nonnull align 8 dereferenceable(112) %3, ptr noundef nonnull align 4 dereferenceable(4) %4)
  store ptr %call2, ptr %charString, align 8
  %5 = load ptr, ptr %status.addr, align 8
  %6 = load i32, ptr %5, align 4
  %call3 = call noundef signext i8 @_ZL9U_FAILURE10UErrorCode(i32 noundef %6)
  %tobool4 = icmp ne i8 %call3, 0
  br i1 %tobool4, label %if.then5, label %if.end6

if.then5:                                         ; preds = %if.end
  store ptr @.str, ptr %retval, align 8
  br label %return

if.end6:                                          ; preds = %if.end
  %7 = load ptr, ptr %charString, align 8
  %cmp = icmp eq ptr %7, null
  br i1 %cmp, label %if.then7, label %if.else

if.then7:                                         ; preds = %if.end6
  %8 = load ptr, ptr %status.addr, align 8
  store i32 7, ptr %8, align 4
  store ptr @.str, ptr %retval, align 8
  br label %return

if.else:                                          ; preds = %if.end6
  %9 = load ptr, ptr %len.addr, align 8
  %cmp8 = icmp ne ptr %9, null
  br i1 %cmp8, label %if.then9, label %if.end11

if.then9:                                         ; preds = %if.else
  %10 = load ptr, ptr %charString, align 8
  %call10 = call noundef i32 @_ZNK6icu_7510CharString6lengthEv(ptr noundef nonnull align 8 dereferenceable(60) %10)
  %11 = load ptr, ptr %len.addr, align 8
  store i32 %call10, ptr %11, align 4
  br label %if.end11

if.end11:                                         ; preds = %if.then9, %if.else
  %12 = load ptr, ptr %charString, align 8
  %call12 = call noundef ptr @_ZN6icu_7510CharString4dataEv(ptr noundef nonnull align 8 dereferenceable(60) %12)
  store ptr %call12, ptr %retval, align 8
  br label %return

return:                                           ; preds = %if.end11, %if.then7, %if.then5, %if.then
  %13 = load ptr, ptr %retval, align 8
  ret ptr %13
}