; Function Attrs: mustprogress uwtable
define ptr @ufmt_getDecNumChars_75(ptr nocapture noundef %fmt, ptr noundef writeonly %len, ptr noundef %status) local_unnamed_addr #1 {
entry:
  %0 = load i32, ptr %status, align 4
  %cmp.i = icmp slt i32 %0, 1
  br i1 %cmp.i, label %if.end, label %return

if.end:                                           ; preds = %entry
  %call2 = tail call noundef ptr @_ZN6icu_7511Formattable21internalGetCharStringER10UErrorCode(ptr noundef nonnull align 8 dereferenceable(112) %fmt, ptr noundef nonnull align 4 dereferenceable(4) %status)
  %1 = load i32, ptr %status, align 4
  %cmp.i7 = icmp slt i32 %1, 1
  br i1 %cmp.i7, label %if.end6, label %return

if.end6:                                          ; preds = %if.end
  %cmp = icmp eq ptr %call2, null
  br i1 %cmp, label %if.then7, label %if.else

if.then7:                                         ; preds = %if.end6
  store i32 7, ptr %status, align 4
  br label %return

if.else:                                          ; preds = %if.end6
  %cmp8.not = icmp eq ptr %len, null
  br i1 %cmp8.not, label %if.end11, label %if.then9

if.then9:                                         ; preds = %if.else
  %len.i = getelementptr inbounds i8, ptr %call2, i64 56
  %2 = load i32, ptr %len.i, align 8
  store i32 %2, ptr %len, align 4
  br label %if.end11

if.end11:                                         ; preds = %if.then9, %if.else
  %3 = load ptr, ptr %call2, align 8
  br label %return

return:                                           ; preds = %if.end, %entry, %if.end11, %if.then7
  %retval.0 = phi ptr [ @.str, %if.then7 ], [ %3, %if.end11 ], [ @.str, %entry ], [ @.str, %if.end ]
  ret ptr %retval.0
}